(lp1
(dp2
I0
I3
sI1
I2
sI38
I1
sI39
I1
sI40
I2
sI41
I1
sI43
I1
sI44
I1
sI47
I3
sI48
I2
sI49
I23
sI54
I1
sI55
I26
sI56
I33
sI57
I110
sI58
I24
sI60
I89
sI62
I912
sI63
I24
sI65
I3
sI68
I19
sI70
I206
sI71
I16
sI72
I382
sI73
I66
sI74
I290
sI75
I2502
sI77
I280
sI78
I25
sI79
I33
sI81
I6
sI82
I97
sI86
I97
sI90
I13
sI91
I24
sI92
I75
sI96
I3
sI97
I49
sI98
I1
sI99
I7
sI100
I14
sI103
I29
sI105
I37
sI106
I808
sI107
I4
sI108
I1
sI109
I14
sI110
I3
sI113
I77
sI114
I19
sI116
I5
sI117
I479
sI118
I536
sI119
I62
sI121
I24
sI122
I4
sI124
I118
sI125
I165
sI126
I263
sI127
I412
sI128
I4
sI133
I221
sI135
I1
sI138
I76
sI140
I2
sI149
I13
sI151
I56
sI152
I57
sI153
I2
sI156
I224
sI158
I27
sI159
I3
sI161
I6
sI162
I62
sI163
I48
sI166
I29
sI168
I21
sI169
I4
sI173
I7
sI175
I53
sI176
I3
sI178
I1
sI180
I33
sI182
I3
sI183
I1
sI185
I1
sa(dp3
I0
I1
sI65
I40
sI2
I1
sI67
I52
sI131
I4
sI38
I3
sI33
I3
sI40
I14
sI75
I85
sI141
I1
sI46
I1
sI104
I63
sI18
I18
sI35
I378
sI53
I164
sI87
I53
sI92
I2
sI126
I8
sa(dp4
I0
I3
sI99
I14
sI4
I1
sI76
I2
sI45
I405
sI112
I3
sI52
I111
sI59
I1
sI29
I28
sa(dp5
I0
I1
sI128
I1
sI2
I2
sI12
I1
sI143
I2
sI144
I63
sI145
I6
sI32
I8
sI46
I1
sI59
I3
sI63
I1
sI77
I31
sI83
I283
sI84
I292
sI85
I165
sI88
I43
sI90
I1
sI92
I185
sI93
I2
sI122
I245
sI123
I19
sI126
I5
sa(dp6
I0
I101
sI1
I61
sI36
I45
sI37
I133
sI38
I99
sI39
I153
sI40
I206
sI41
I288
sI42
I272
sI43
I259
sI44
I212
sI45
I129
sI46
I202
sI47
I303
sI48
I301
sI49
I230
sI50
I280
sI51
I191
sI52
I103
sI53
I123
sI54
I153
sI55
I306
sI56
I267
sI57
I242
sI58
I172
sI59
I133
sI60
I186
sI61
I239
sI62
I282
sI63
I300
sI64
I259
sI65
I194
sI66
I154
sI67
I188
sI68
I275
sI69
I289
sI70
I315
sI71
I274
sI72
I180
sI73
I107
sI74
I126
sI75
I266
sI76
I294
sI77
I277
sI78
I218
sI79
I224
sI80
I147
sI81
I180
sI82
I301
sI83
I288
sI84
I310
sI85
I279
sI86
I224
sI87
I143
sI88
I200
sI89
I296
sI90
I311
sI91
I358
sI92
I298
sI93
I205
sI94
I171
sI95
I215
sI96
I289
sI97
I356
sI98
I392
sI99
I270
sI100
I250
sI101
I169
sI102
I266
sI103
I354
sI104
I305
sI105
I298
sI106
I231
sI107
I195
sI108
I153
sI109
I214
sI110
I301
sI111
I336
sI112
I290
sI113
I298
sI114
I230
sI115
I200
sI116
I243
sI117
I294
sI118
I337
sI119
I288
sI120
I199
sI121
I204
sI122
I117
sI123
I178
sI124
I216
sI125
I204
sI126
I193
sI127
I147
sI128
I139
sI129
I75
sI130
I106
sI131
I134
sI132
I113
sI133
I119
sI134
I103
sI135
I77
sI136
I69
sI137
I55
sI138
I96
sI139
I93
sI140
I74
sI141
I63
sI142
I63
sI143
I16
sI144
I12
sI145
I28
sI146
I12
sI147
I10
sI148
I29
sI149
I40
sI150
I18
sI151
I17
sI152
I24
sI153
I4
sI154
I24
sI155
I51
sI156
I31
sI157
I26
sI158
I36
sI159
I54
sI160
I61
sI161
I65
sI162
I59
sI163
I50
sI164
I30
sI165
I36
sI166
I68
sI167
I85
sI168
I92
sI169
I71
sI170
I43
sI171
I36
sI172
I27
sI173
I64
sI174
I61
sI175
I67
sI176
I68
sI177
I42
sI178
I45
sI179
I37
sI180
I78
sI181
I84
sI182
I55
sI183
I52
sI184
I35
sI185
I43
sI186
I31
sa(dp7
I0
I1
sI2
I47
sI101
I1
sI10
I17
sI78
I76
sI20
I13
sI55
I96
sI56
I6
sI58
I111
sI30
I1
sa(dp8
I0
I2
sI26
I1
sI55
I133
sa(dp9
I0
I94
sI1
I148
sI36
I73
sI37
I107
sI38
I111
sI39
I164
sI40
I312
sI41
I386
sI42
I360
sI43
I330
sI44
I222
sI45
I98
sI46
I172
sI47
I355
sI48
I354
sI49
I277
sI50
I284
sI51
I179
sI52
I121
sI53
I186
sI54
I274
sI55
I302
sI56
I316
sI57
I308
sI58
I198
sI59
I127
sI60
I144
sI61
I269
sI62
I268
sI63
I253
sI64
I238
sI65
I164
sI66
I131
sI67
I139
sI68
I269
sI69
I249
sI70
I222
sI71
I198
sI72
I151
sI73
I82
sI74
I80
sI75
I185
sI76
I212
sI77
I236
sI78
I243
sI79
I187
sI80
I118
sI81
I142
sI82
I348
sI83
I348
sI84
I307
sI85
I250
sI86
I197
sI87
I127
sI88
I137
sI89
I266
sI90
I319
sI91
I295
sI92
I250
sI93
I170
sI94
I132
sI95
I175
sI96
I361
sI97
I370
sI98
I332
sI99
I327
sI100
I219
sI101
I139
sI102
I177
sI103
I360
sI104
I329
sI105
I340
sI106
I225
sI107
I139
sI108
I103
sI109
I178
sI110
I306
sI111
I303
sI112
I283
sI113
I243
sI114
I219
sI115
I133
sI116
I157
sI117
I311
sI118
I284
sI119
I274
sI120
I266
sI121
I189
sI122
I80
sI123
I96
sI124
I189
sI125
I189
sI126
I197
sI127
I157
sI128
I122
sI129
I73
sI130
I72
sI131
I158
sI132
I145
sI133
I103
sI134
I101
sI135
I79
sI136
I54
sI137
I42
sI138
I89
sI139
I67
sI140
I88
sI141
I44
sI142
I39
sI143
I23
sI144
I14
sI145
I28
sI146
I8
sI147
I18
sI148
I31
sI149
I29
sI150
I24
sI151
I18
sI152
I26
sI153
I18
sI154
I18
sI155
I34
sI156
I32
sI157
I18
sI158
I31
sI159
I54
sI160
I69
sI161
I80
sI162
I77
sI163
I38
sI164
I30
sI165
I51
sI166
I80
sI167
I60
sI168
I59
sI169
I57
sI170
I42
sI171
I38
sI172
I28
sI173
I63
sI174
I75
sI175
I52
sI176
I52
sI177
I59
sI178
I24
sI179
I47
sI180
I63
sI181
I84
sI182
I73
sI183
I87
sI184
I57
sI185
I35
sI186
I35
sa(dp10
I0
I12
sI1
I7
sI36
I20
sI37
I51
sI38
I63
sI39
I91
sI40
I84
sI41
I134
sI42
I97
sI43
I150
sI44
I106
sI45
I106
sI46
I120
sI47
I140
sI48
I130
sI49
I134
sI50
I115
sI51
I89
sI52
I67
sI53
I92
sI54
I81
sI55
I270
sI56
I306
sI57
I348
sI58
I283
sI59
I259
sI60
I345
sI61
I420
sI62
I632
sI63
I712
sI64
I707
sI65
I622
sI66
I650
sI67
I1054
sI68
I1036
sI69
I1575
sI70
I2045
sI71
I2506
sI72
I2369
sI73
I34
sI74
I18
sI75
I53
sI76
I55
sI77
I75
sI78
I63
sI79
I35
sI80
I25
sI81
I28
sI82
I54
sI83
I86
sI84
I92
sI85
I70
sI86
I54
sI87
I27
sI88
I49
sI89
I88
sI90
I83
sI91
I77
sI92
I93
sI93
I53
sI94
I69
sI95
I158
sI96
I169
sI97
I72
sI98
I57
sI99
I53
sI100
I31
sI101
I19
sI102
I40
sI103
I80
sI104
I73
sI105
I72
sI106
I30
sI107
I25
sI108
I32
sI109
I29
sI110
I62
sI111
I52
sI112
I55
sI113
I38
sI114
I28
sI115
I30
sI116
I37
sI117
I38
sI118
I59
sI119
I56
sI120
I53
sI121
I31
sI122
I15
sI123
I24
sI124
I51
sI125
I54
sI126
I45
sI127
I35
sI128
I20
sI129
I12
sI130
I23
sI131
I42
sI132
I27
sI133
I20
sI134
I17
sI135
I15
sI136
I5
sI137
I21
sI138
I10
sI139
I7
sI140
I23
sI141
I35
sI142
I6
sI143
I4
sI144
I11
sI145
I1
sI146
I4
sI147
I5
sI148
I4
sI149
I5
sI150
I2
sI151
I6
sI152
I5
sI153
I3
sI154
I3
sI155
I3
sI156
I7
sI157
I2
sI158
I9
sI159
I9
sI160
I13
sI161
I16
sI162
I20
sI163
I4
sI164
I5
sI165
I8
sI166
I8
sI167
I24
sI168
I28
sI169
I19
sI170
I11
sI171
I10
sI172
I12
sI173
I14
sI174
I29
sI175
I13
sI176
I6
sI177
I21
sI178
I6
sI179
I20
sI180
I14
sI181
I12
sI182
I11
sI183
I10
sI184
I10
sI185
I5
sI186
I2
sa(dp11
I0
I3
sI33
I2
sI36
I36
sI7
I22
sI139
I2
sI140
I3
sI45
I1
sI142
I1
sI143
I1
sI112
I22
sI115
I6
sI54
I4
sI56
I17
sI57
I104
sI92
I66
sa.